target datalayout = "e-m:e-p270:32:32-p271:32:32-p272:64:64-i64:64-i128:128-f80:128-n8:16:32:64-S128"
target triple = "x86_64-pc-linux-gnu"

%struct.ffc_params_st = type { ptr, ptr, ptr, ptr, ptr, i64, i32, i32, i32, i32, i32, ptr, ptr, i32 }

@.str = private unnamed_addr constant [44 x i8] c"../openssl/crypto/ffc/ffc_params_validate.c\00", align 1
@__func__.ossl_ffc_params_simple_validate = private unnamed_addr constant [32 x i8] c"ossl_ffc_params_simple_validate\00", align 1

; Function Attrs: nounwind uwtable
define i32 @ossl_ffc_params_FIPS186_4_validate(ptr noundef %0, ptr noundef %1, i32 noundef %2, ptr noundef %3, ptr noundef %4) #0 {
  %6 = alloca i32, align 4
  %7 = alloca ptr, align 8
  %8 = alloca ptr, align 8
  %9 = alloca i32, align 4
  %10 = alloca ptr, align 8
  %11 = alloca ptr, align 8
  %12 = alloca i64, align 8
  %13 = alloca i64, align 8
  %14 = alloca i32, align 4
  store ptr %0, ptr %7, align 8, !tbaa !16
  store ptr %1, ptr %8, align 8, !tbaa !18
  store i32 %2, ptr %9, align 4, !tbaa !14
  store ptr %3, ptr %10, align 8, !tbaa !12
  store ptr %4, ptr %11, align 8, !tbaa !20
  call void @llvm.lifetime.start.p0(i64 8, ptr %12) #4
  call void @llvm.lifetime.start.p0(i64 8, ptr %13) #4
  %15 = load ptr, ptr %8, align 8, !tbaa !18
  %16 = icmp eq ptr %15, null
  br i1 %16, label %27, label %17

17:                                               ; preds = %5
  %18 = load ptr, ptr %8, align 8, !tbaa !18
  %19 = getelementptr inbounds nuw %struct.ffc_params_st, ptr %18, i32 0, i32 0
  %20 = load ptr, ptr %19, align 8, !tbaa !22
  %21 = icmp eq ptr %20, null
  br i1 %21, label %27, label %22

22:                                               ; preds = %17
  %23 = load ptr, ptr %8, align 8, !tbaa !18
  %24 = getelementptr inbounds nuw %struct.ffc_params_st, ptr %23, i32 0, i32 1
  %25 = load ptr, ptr %24, align 8, !tbaa !26
  %26 = icmp eq ptr %25, null
  br i1 %26, label %27, label %28

27:                                               ; preds = %22, %17, %5
  store i32 0, ptr %6, align 4
  store i32 1, ptr %14, align 4
  br label %47

28:                                               ; preds = %22
  %29 = load ptr, ptr %8, align 8, !tbaa !18
  %30 = getelementptr inbounds nuw %struct.ffc_params_st, ptr %29, i32 0, i32 0
  %31 = load ptr, ptr %30, align 8, !tbaa !22
  %32 = call i32 @BN_num_bits(ptr noundef %31)
  %33 = sext i32 %32 to i64
  store i64 %33, ptr %12, align 8, !tbaa !27
  %34 = load ptr, ptr %8, align 8, !tbaa !18
  %35 = getelementptr inbounds nuw %struct.ffc_params_st, ptr %34, i32 0, i32 1
  %36 = load ptr, ptr %35, align 8, !tbaa !26
  %37 = call i32 @BN_num_bits(ptr noundef %36)
  %38 = sext i32 %37 to i64
  store i64 %38, ptr %13, align 8, !tbaa !27
  %39 = load ptr, ptr %7, align 8, !tbaa !16
  %40 = load ptr, ptr %8, align 8, !tbaa !18
  %41 = load i32, ptr %9, align 4, !tbaa !14
  %42 = load i64, ptr %12, align 8, !tbaa !27
  %43 = load i64, ptr %13, align 8, !tbaa !27
  %44 = load ptr, ptr %10, align 8, !tbaa !12
  %45 = load ptr, ptr %11, align 8, !tbaa !20
  %46 = call i32 @ossl_ffc_params_FIPS186_4_gen_verify(ptr noundef %39, ptr noundef %40, i32 noundef 0, i32 noundef %41, i64 noundef %42, i64 noundef %43, ptr noundef %44, ptr noundef %45)
  store i32 %46, ptr %6, align 4
  store i32 1, ptr %14, align 4
  br label %47

47:                                               ; preds = %28, %27
  call void @llvm.lifetime.end.p0(i64 8, ptr %13) #4
  call void @llvm.lifetime.end.p0(i64 8, ptr %12) #4
  %48 = load i32, ptr %6, align 4
  ret i32 %48
}

; Function Attrs: nounwind uwtable
define i32 @ossl_ffc_params_FIPS186_2_validate(ptr noundef %0, ptr noundef %1, i32 noundef %2, ptr noundef %3, ptr noundef %4) #0 {
  %6 = alloca i32, align 4
  %7 = alloca ptr, align 8
  %8 = alloca ptr, align 8
  %9 = alloca i32, align 4
  %10 = alloca ptr, align 8
  %11 = alloca ptr, align 8
  %12 = alloca i64, align 8
  %13 = alloca i64, align 8
  %14 = alloca i32, align 4
  store ptr %0, ptr %7, align 8, !tbaa !16
  store ptr %1, ptr %8, align 8, !tbaa !18
  store i32 %2, ptr %9, align 4, !tbaa !14
  store ptr %3, ptr %10, align 8, !tbaa !12
  store ptr %4, ptr %11, align 8, !tbaa !20
  call void @llvm.lifetime.start.p0(i64 8, ptr %12) #4
  call void @llvm.lifetime.start.p0(i64 8, ptr %13) #4
  %15 = load ptr, ptr %8, align 8, !tbaa !18
  %16 = icmp eq ptr %15, null
  br i1 %16, label %27, label %17

17:                                               ; preds = %5
  %18 = load ptr, ptr %8, align 8, !tbaa !18
  %19 = getelementptr inbounds nuw %struct.ffc_params_st, ptr %18, i32 0, i32 0
  %20 = load ptr, ptr %19, align 8, !tbaa !22
  %21 = icmp eq ptr %20, null
  br i1 %21, label %27, label %22

22:                                               ; preds = %17
  %23 = load ptr, ptr %8, align 8, !tbaa !18
  %24 = getelementptr inbounds nuw %struct.ffc_params_st, ptr %23, i32 0, i32 1
  %25 = load ptr, ptr %24, align 8, !tbaa !26
  %26 = icmp eq ptr %25, null
  br i1 %26, label %27, label %29

27:                                               ; preds = %22, %17, %5
  %28 = load ptr, ptr %10, align 8, !tbaa !12
  store i32 2048, ptr %28, align 4, !tbaa !14
  store i32 0, ptr %6, align 4
  store i32 1, ptr %14, align 4
  br label %48

29:                                               ; preds = %22
  %30 = load ptr, ptr %8, align 8, !tbaa !18
  %31 = getelementptr inbounds nuw %struct.ffc_params_st, ptr %30, i32 0, i32 0
  %32 = load ptr, ptr %31, align 8, !tbaa !22
  %33 = call i32 @BN_num_bits(ptr noundef %32)
  %34 = sext i32 %33 to i64
  store i64 %34, ptr %12, align 8, !tbaa !27
  %35 = load ptr, ptr %8, align 8, !tbaa !18
  %36 = getelementptr inbounds nuw %struct.ffc_params_st, ptr %35, i32 0, i32 1
  %37 = load ptr, ptr %36, align 8, !tbaa !26
  %38 = call i32 @BN_num_bits(ptr noundef %37)
  %39 = sext i32 %38 to i64
  store i64 %39, ptr %13, align 8, !tbaa !27
  %40 = load ptr, ptr %7, align 8, !tbaa !16
  %41 = load ptr, ptr %8, align 8, !tbaa !18
  %42 = load i32, ptr %9, align 4, !tbaa !14
  %43 = load i64, ptr %12, align 8, !tbaa !27
  %44 = load i64, ptr %13, align 8, !tbaa !27
  %45 = load ptr, ptr %10, align 8, !tbaa !12
  %46 = load ptr, ptr %11, align 8, !tbaa !20
  %47 = call i32 @ossl_ffc_params_FIPS186_2_gen_verify(ptr noundef %40, ptr noundef %41, i32 noundef 0, i32 noundef %42, i64 noundef %43, i64 noundef %44, ptr noundef %45, ptr noundef %46)
  store i32 %47, ptr %6, align 4
  store i32 1, ptr %14, align 4
  br label %48

48:                                               ; preds = %29, %27
  call void @llvm.lifetime.end.p0(i64 8, ptr %13) #4
  call void @llvm.lifetime.end.p0(i64 8, ptr %12) #4
  %49 = load i32, ptr %6, align 4
  ret i32 %49
}

; Function Attrs: nounwind uwtable
define i32 @ossl_ffc_params_simple_validate(ptr noundef %0, ptr noundef %1, i32 noundef %2, ptr noundef %3) #0 {
  %5 = alloca i32, align 4
  %6 = alloca ptr, align 8
  %7 = alloca ptr, align 8
  %8 = alloca i32, align 4
  %9 = alloca ptr, align 8
  %10 = alloca i32, align 4
  %11 = alloca i32, align 4
  %12 = alloca %struct.ffc_params_st, align 8
  %13 = alloca i32, align 4
  store ptr %0, ptr %6, align 8, !tbaa !16
  store ptr %1, ptr %7, align 8, !tbaa !18
  store i32 %2, ptr %8, align 4, !tbaa !14
  store ptr %3, ptr %9, align 8, !tbaa !12
  call void @llvm.lifetime.start.p0(i64 4, ptr %10) #4
  call void @llvm.lifetime.start.p0(i64 4, ptr %11) #4
  store i32 0, ptr %11, align 4, !tbaa !14
  call void @llvm.lifetime.start.p0(i64 96, ptr %12) #4
  call void @llvm.memset.p0.i64(ptr align 8 %12, i8 0, i64 96, i1 false)
  %14 = load ptr, ptr %7, align 8, !tbaa !18
  %15 = icmp eq ptr %14, null
  br i1 %15, label %16, label %17

16:                                               ; preds = %4
  store i32 0, ptr %5, align 4
  store i32 1, ptr %13, align 4
  br label %57

17:                                               ; preds = %4
  %18 = load ptr, ptr %9, align 8, !tbaa !12
  %19 = icmp eq ptr %18, null
  br i1 %19, label %20, label %21

20:                                               ; preds = %17
  store ptr %11, ptr %9, align 8, !tbaa !12
  br label %21

21:                                               ; preds = %20, %17
  %22 = load ptr, ptr %7, align 8, !tbaa !18
  %23 = call i32 @ossl_ffc_params_copy(ptr noundef %12, ptr noundef %22)
  %24 = icmp ne i32 %23, 0
  br i1 %24, label %26, label %25

25:                                               ; preds = %21
  store i32 0, ptr %5, align 4
  store i32 1, ptr %13, align 4
  br label %57

26:                                               ; preds = %21
  %27 = getelementptr inbounds nuw %struct.ffc_params_st, ptr %12, i32 0, i32 10
  store i32 2, ptr %27, align 8, !tbaa !28
  %28 = getelementptr inbounds nuw %struct.ffc_params_st, ptr %12, i32 0, i32 8
  store i32 -1, ptr %28, align 8, !tbaa !29
  %29 = load ptr, ptr %7, align 8, !tbaa !18
  %30 = getelementptr inbounds nuw %struct.ffc_params_st, ptr %29, i32 0, i32 10
  %31 = load i32, ptr %30, align 8, !tbaa !28
  %32 = and i32 %31, 4
  %33 = icmp ne i32 %32, 0
  br i1 %33, label %34, label %39

34:                                               ; preds = %26
  %35 = load ptr, ptr %6, align 8, !tbaa !16
  %36 = load i32, ptr %8, align 4, !tbaa !14
  %37 = load ptr, ptr %9, align 8, !tbaa !12
  %38 = call i32 @ossl_ffc_params_FIPS186_2_validate(ptr noundef %35, ptr noundef %12, i32 noundef %36, ptr noundef %37, ptr noundef null)
  store i32 %38, ptr %10, align 4, !tbaa !14
  br label %44

39:                                               ; preds = %26
  %40 = load ptr, ptr %6, align 8, !tbaa !16
  %41 = load i32, ptr %8, align 4, !tbaa !14
  %42 = load ptr, ptr %9, align 8, !tbaa !12
  %43 = call i32 @ossl_ffc_params_FIPS186_4_validate(ptr noundef %40, ptr noundef %12, i32 noundef %41, ptr noundef %42, ptr noundef null)
  store i32 %43, ptr %10, align 4, !tbaa !14
  br label %44

44:                                               ; preds = %39, %34
  %45 = load i32, ptr %10, align 4, !tbaa !14
  %46 = icmp eq i32 %45, 0
  br i1 %46, label %47, label %53

47:                                               ; preds = %44
  %48 = load ptr, ptr %9, align 8, !tbaa !12
  %49 = load i32, ptr %48, align 4, !tbaa !14
  %50 = and i32 %49, 8
  %51 = icmp ne i32 %50, 0
  br i1 %51, label %52, label %53

52:                                               ; preds = %47
  call void @ERR_new()
  call void @ERR_set_debug(ptr noundef @.str, i32 noundef 125, ptr noundef @__func__.ossl_ffc_params_simple_validate)
  call void (i32, i32, ptr, ...) @ERR_set_error(i32 noundef 5, i32 noundef 120, ptr noundef null)
  br label %53

53:                                               ; preds = %52, %47, %44
  call void @ossl_ffc_params_cleanup(ptr noundef %12)
  %54 = load i32, ptr %10, align 4, !tbaa !14
  %55 = icmp ne i32 %54, 0
  %56 = zext i1 %55 to i32
  store i32 %56, ptr %5, align 4
  store i32 1, ptr %13, align 4
  br label %57

57:                                               ; preds = %53, %25, %16
  call void @llvm.lifetime.end.p0(i64 96, ptr %12) #4
  call void @llvm.lifetime.end.p0(i64 4, ptr %11) #4
  call void @llvm.lifetime.end.p0(i64 4, ptr %10) #4
  %58 = load i32, ptr %5, align 4
  ret i32 %58
}