; Function Attrs: nounwind uwtable
define range(i32 0, 2) i32 @ossl_ffc_params_simple_validate(ptr noundef %0, ptr noundef %1, i32 noundef %2, ptr noundef %3) local_unnamed_addr #0 {
  %5 = alloca i32, align 4
  %6 = alloca %struct.ffc_params_st, align 8
  call void @llvm.lifetime.start.p0(i64 4, ptr nonnull %5) #4
  store i32 0, ptr %5, align 4, !tbaa !3
  call void @llvm.lifetime.start.p0(i64 96, ptr nonnull %6) #4
  call void @llvm.memset.p0.i64(ptr noundef nonnull align 8 dereferenceable(96) %6, i8 0, i64 96, i1 false)
  %7 = icmp eq ptr %1, null
  br i1 %7, label %49, label %8

8:                                                ; preds = %4
  %9 = icmp eq ptr %3, null
  %spec.store.select = select i1 %9, ptr %5, ptr %3
  %10 = call i32 @ossl_ffc_params_copy(ptr noundef nonnull %6, ptr noundef nonnull %1) #4
  %.not = icmp eq i32 %10, 0
  br i1 %.not, label %49, label %11

11:                                               ; preds = %8
  %12 = getelementptr inbounds nuw i8, ptr %6, i64 64
  store i32 2, ptr %12, align 8, !tbaa !14
  %13 = getelementptr inbounds nuw i8, ptr %6, i64 56
  store i32 -1, ptr %13, align 8, !tbaa !15
  %14 = getelementptr inbounds nuw i8, ptr %1, i64 64
  %15 = load i32, ptr %14, align 8, !tbaa !14
  %16 = and i32 %15, 4
  %.not15 = icmp eq i32 %16, 0
  %17 = load ptr, ptr %6, align 8, !tbaa !7
  %18 = icmp eq ptr %17, null
  br i1 %.not15, label %32, label %19

19:                                               ; preds = %11
  br i1 %18, label %24, label %20

20:                                               ; preds = %19
  %21 = getelementptr inbounds nuw i8, ptr %6, i64 8
  %22 = load ptr, ptr %21, align 8, !tbaa !13
  %23 = icmp eq ptr %22, null
  br i1 %23, label %24, label %25

24:                                               ; preds = %20, %19
  store i32 2048, ptr %spec.store.select, align 4, !tbaa !3
  br label %ossl_ffc_params_FIPS186_2_validate.exit.thread

25:                                               ; preds = %20
  %26 = call i32 @BN_num_bits(ptr noundef nonnull %17) #4
  %27 = sext i32 %26 to i64
  %28 = load ptr, ptr %21, align 8, !tbaa !13
  %29 = call i32 @BN_num_bits(ptr noundef %28) #4
  %30 = sext i32 %29 to i64
  %31 = call i32 @ossl_ffc_params_FIPS186_2_gen_verify(ptr noundef %0, ptr noundef nonnull %6, i32 noundef 0, i32 noundef %2, i64 noundef %27, i64 noundef %30, ptr noundef nonnull %spec.store.select, ptr noundef null) #4
  br label %ossl_ffc_params_FIPS186_2_validate.exit

32:                                               ; preds = %11
  br i1 %18, label %ossl_ffc_params_FIPS186_2_validate.exit.thread, label %33

33:                                               ; preds = %32
  %34 = getelementptr inbounds nuw i8, ptr %6, i64 8
  %35 = load ptr, ptr %34, align 8, !tbaa !13
  %36 = icmp eq ptr %35, null
  br i1 %36, label %ossl_ffc_params_FIPS186_2_validate.exit.thread, label %37

37:                                               ; preds = %33
  %38 = call i32 @BN_num_bits(ptr noundef nonnull %17) #4
  %39 = sext i32 %38 to i64
  %40 = load ptr, ptr %34, align 8, !tbaa !13
  %41 = call i32 @BN_num_bits(ptr noundef %40) #4
  %42 = sext i32 %41 to i64
  %43 = call i32 @ossl_ffc_params_FIPS186_4_gen_verify(ptr noundef %0, ptr noundef nonnull %6, i32 noundef 0, i32 noundef %2, i64 noundef %39, i64 noundef %42, ptr noundef nonnull %spec.store.select, ptr noundef null) #4
  br label %ossl_ffc_params_FIPS186_2_validate.exit

ossl_ffc_params_FIPS186_2_validate.exit:          ; preds = %37, %25
  %.0 = phi i32 [ %31, %25 ], [ %43, %37 ]
  %44 = icmp eq i32 %.0, 0
  br i1 %44, label %ossl_ffc_params_FIPS186_2_validate.exit.thread, label %48

ossl_ffc_params_FIPS186_2_validate.exit.thread:   ; preds = %32, %33, %24, %ossl_ffc_params_FIPS186_2_validate.exit
  %45 = load i32, ptr %spec.store.select, align 4, !tbaa !3
  %46 = and i32 %45, 8
  %.not16 = icmp eq i32 %46, 0
  br i1 %.not16, label %48, label %47

47:                                               ; preds = %ossl_ffc_params_FIPS186_2_validate.exit.thread
  call void @ERR_new() #4
  call void @ERR_set_debug(ptr noundef nonnull @.str, i32 noundef 125, ptr noundef nonnull @__func__.ossl_ffc_params_simple_validate) #4
  call void (i32, i32, ptr, ...) @ERR_set_error(i32 noundef 5, i32 noundef 120, ptr noundef null) #4
  br label %48

48:                                               ; preds = %47, %ossl_ffc_params_FIPS186_2_validate.exit.thread, %ossl_ffc_params_FIPS186_2_validate.exit
  %.019 = phi i32 [ 0, %47 ], [ 0, %ossl_ffc_params_FIPS186_2_validate.exit.thread ], [ 1, %ossl_ffc_params_FIPS186_2_validate.exit ]
  call void @ossl_ffc_params_cleanup(ptr noundef nonnull %6) #4
  br label %49

49:                                               ; preds = %8, %4, %48
  %.013 = phi i32 [ %.019, %48 ], [ 0, %4 ], [ 0, %8 ]
  call void @llvm.lifetime.end.p0(i64 96, ptr nonnull %6) #4
  call void @llvm.lifetime.end.p0(i64 4, ptr nonnull %5) #4
  ret i32 %.013
}